; Function Attrs: mustprogress uwtable
define void @_ZN6GLArea12setDecoratorE7QStringb(ptr noundef nonnull align 8 dereferenceable(1676) %0, ptr nocapture noundef readonly %1, i1 noundef zeroext %2) local_unnamed_addr #9 align 2 personality ptr @__gxx_personality_v0 {
  %4 = alloca %class.QString, align 8
  tail call void @_ZN9QGLWidget11makeCurrentEv(ptr noundef nonnull align 8 dereferenceable(48) %0)
  %5 = load ptr, ptr %1, align 8
  store ptr %5, ptr %4, align 8
  %6 = load atomic i32, ptr %5 monotonic, align 4
  %7 = add i32 %6, -1
  %or.cond.not.i.i = icmp ult i32 %7, -2
  br i1 %or.cond.not.i.i, label %8, label %_ZN7QStringC2ERKS_.exit

8:                                                ; preds = %3
  %9 = atomicrmw add ptr %5, i32 1 seq_cst, align 4
  br label %_ZN7QStringC2ERKS_.exit

_ZN7QStringC2ERKS_.exit:                          ; preds = %3, %8
  invoke void @_ZN6GLArea15updateDecoratorE7QStringbb(ptr noundef nonnull align 8 dereferenceable(1676) %0, ptr noundef nonnull %4, i1 noundef zeroext false, i1 noundef zeroext %2)
          to label %10 unwind label %15

10:                                               ; preds = %_ZN7QStringC2ERKS_.exit
  %11 = load ptr, ptr %4, align 8
  %12 = load atomic i32, ptr %11 monotonic, align 4
  switch i32 %12, label %_ZN9QtPrivate8RefCount5derefEv.exit.i [
    i32 0, label %_ZN9QtPrivate8RefCount5derefEv.exit.thread2.i
    i32 -1, label %_ZN7QStringD2Ev.exit
  ]

_ZN9QtPrivate8RefCount5derefEv.exit.i:            ; preds = %10
  %13 = atomicrmw sub ptr %11, i32 1 seq_cst, align 4
  %.not.i = icmp eq i32 %13, 1
  br i1 %.not.i, label %_ZN9QtPrivate8RefCount5derefEv.exit._ZN9QtPrivate8RefCount5derefEv.exit.thread2_crit_edge.i, label %_ZN7QStringD2Ev.exit

_ZN9QtPrivate8RefCount5derefEv.exit._ZN9QtPrivate8RefCount5derefEv.exit.thread2_crit_edge.i: ; preds = %_ZN9QtPrivate8RefCount5derefEv.exit.i
  %.pre.i = load ptr, ptr %4, align 8
  br label %_ZN9QtPrivate8RefCount5derefEv.exit.thread2.i

_ZN9QtPrivate8RefCount5derefEv.exit.thread2.i:    ; preds = %_ZN9QtPrivate8RefCount5derefEv.exit._ZN9QtPrivate8RefCount5derefEv.exit.thread2_crit_edge.i, %10
  %14 = phi ptr [ %.pre.i, %_ZN9QtPrivate8RefCount5derefEv.exit._ZN9QtPrivate8RefCount5derefEv.exit.thread2_crit_edge.i ], [ %11, %10 ]
  call void @_ZN10QArrayData10deallocateEPS_mm(ptr noundef %14, i64 noundef 2, i64 noundef 8) #32
  br label %_ZN7QStringD2Ev.exit

_ZN7QStringD2Ev.exit:                             ; preds = %10, %_ZN9QtPrivate8RefCount5derefEv.exit.i, %_ZN9QtPrivate8RefCount5derefEv.exit.thread2.i
  ret void

15:                                               ; preds = %_ZN7QStringC2ERKS_.exit
  %16 = landingpad { ptr, i32 }
          cleanup
  call void @_ZN7QStringD2Ev(ptr noundef nonnull align 8 dereferenceable(8) %4) #32
  resume { ptr, i32 } %16
}